; Function Attrs: mustprogress uwtable
define hidden void @_ZN6spacer16pred_transformer13legacy_frames17simplify_formulasEv(ptr noundef nonnull align 8 dereferenceable(56) %this) local_unnamed_addr #3 align 2 personality ptr @__gxx_personality_v0 {
entry:
  %us = alloca %class.ref.80, align 8
  %ref.tmp = alloca %class.params_ref, align 8
  %0 = load ptr, ptr %this, align 8
  %m.i = getelementptr inbounds i8, ptr %0, i64 8
  %1 = load ptr, ptr %m.i, align 8
  store ptr null, ptr %ref.tmp, align 8
  %call2 = invoke noundef ptr @_Z26mk_unit_subsumption_tacticR11ast_managerRK10params_ref(ptr noundef nonnull align 8 dereferenceable(976) %1, ptr noundef nonnull align 8 dereferenceable(8) %ref.tmp)
          to label %invoke.cont unwind label %lpad

invoke.cont:                                      ; preds = %entry
  store ptr %call2, ptr %us, align 8
  %tobool.not.i.i = icmp eq ptr %call2, null
  br i1 %tobool.not.i.i, label %invoke.cont3, label %if.then.i.i

if.then.i.i:                                      ; preds = %invoke.cont
  %m_ref_count.i.i.i = getelementptr inbounds i8, ptr %call2, i64 8
  %2 = load i32, ptr %m_ref_count.i.i.i, align 8
  %inc.i.i.i = add i32 %2, 1
  store i32 %inc.i.i.i, ptr %m_ref_count.i.i.i, align 8
  br label %invoke.cont3

invoke.cont3:                                     ; preds = %if.then.i.i, %invoke.cont
  call void @_ZN10params_refD1Ev(ptr noundef nonnull align 8 dereferenceable(8) %ref.tmp) #13
  %m_invariants = getelementptr inbounds i8, ptr %this, i64 40
  invoke void @_ZN6spacer16pred_transformer13legacy_frames17simplify_formulasER6tacticR10ref_vectorI4expr11ast_managerE(ptr noundef nonnull align 8 dereferenceable(56) %this, ptr noundef nonnull align 8 dereferenceable(12) %call2, ptr noundef nonnull align 8 dereferenceable(16) %m_invariants)
          to label %for.cond.preheader unwind label %lpad4.loopexit.split-lp

for.cond.preheader:                               ; preds = %invoke.cont3
  %m_levels = getelementptr inbounds i8, ptr %this, i64 8
  br label %for.cond

for.cond:                                         ; preds = %for.cond.preheader, %for.inc
  %indvars.iv = phi i64 [ 0, %for.cond.preheader ], [ %indvars.iv.next, %for.inc ]
  %3 = load ptr, ptr %m_levels, align 8
  %cmp.i = icmp eq ptr %3, null
  br i1 %cmp.i, label %_ZNK6vectorI10ref_vectorI4expr11ast_managerELb1EjE4sizeEv.exit, label %if.end.i

if.end.i:                                         ; preds = %for.cond
  %arrayidx.i = getelementptr inbounds i8, ptr %3, i64 -4
  %4 = load i32, ptr %arrayidx.i, align 4
  br label %_ZNK6vectorI10ref_vectorI4expr11ast_managerELb1EjE4sizeEv.exit

_ZNK6vectorI10ref_vectorI4expr11ast_managerELb1EjE4sizeEv.exit: ; preds = %for.cond, %if.end.i
  %retval.0.i = phi i32 [ %4, %if.end.i ], [ 0, %for.cond ]
  %5 = zext i32 %retval.0.i to i64
  %cmp = icmp ult i64 %indvars.iv, %5
  br i1 %cmp, label %for.body, label %if.then.i.i6

for.body:                                         ; preds = %_ZNK6vectorI10ref_vectorI4expr11ast_managerELb1EjE4sizeEv.exit
  %arrayidx.i4 = getelementptr inbounds %class.ref_vector, ptr %3, i64 %indvars.iv
  invoke void @_ZN6spacer16pred_transformer13legacy_frames17simplify_formulasER6tacticR10ref_vectorI4expr11ast_managerE(ptr noundef nonnull align 8 dereferenceable(56) %this, ptr noundef nonnull align 8 dereferenceable(12) %call2, ptr noundef nonnull align 8 dereferenceable(16) %arrayidx.i4)
          to label %for.inc unwind label %lpad4.loopexit

for.inc:                                          ; preds = %for.body
  %indvars.iv.next = add nuw nsw i64 %indvars.iv, 1
  br label %for.cond, !llvm.loop !11

lpad:                                             ; preds = %entry
  %6 = landingpad { ptr, i32 }
          cleanup
  call void @_ZN10params_refD1Ev(ptr noundef nonnull align 8 dereferenceable(8) %ref.tmp) #13
  br label %eh.resume

lpad4.loopexit:                                   ; preds = %for.body
  %lpad.loopexit = landingpad { ptr, i32 }
          cleanup
  br label %lpad4

lpad4.loopexit.split-lp:                          ; preds = %invoke.cont3
  %lpad.loopexit.split-lp = landingpad { ptr, i32 }
          cleanup
  br label %lpad4

lpad4:                                            ; preds = %lpad4.loopexit.split-lp, %lpad4.loopexit
  %lpad.phi = phi { ptr, i32 } [ %lpad.loopexit, %lpad4.loopexit ], [ %lpad.loopexit.split-lp, %lpad4.loopexit.split-lp ]
  call void @_ZN3refI6tacticED2Ev(ptr noundef nonnull align 8 dereferenceable(8) %us) #13
  br label %eh.resume

if.then.i.i6:                                     ; preds = %_ZNK6vectorI10ref_vectorI4expr11ast_managerELb1EjE4sizeEv.exit
  %m_ref_count.i.i.i7 = getelementptr inbounds i8, ptr %call2, i64 8
  %7 = load i32, ptr %m_ref_count.i.i.i7, align 8
  %dec.i.i.i = add i32 %7, -1
  store i32 %dec.i.i.i, ptr %m_ref_count.i.i.i7, align 8
  %cmp.i.i.i = icmp eq i32 %dec.i.i.i, 0
  br i1 %cmp.i.i.i, label %if.then.i.i.i, label %_ZN3refI6tacticED2Ev.exit

if.then.i.i.i:                                    ; preds = %if.then.i.i6
  %vtable.i.i.i.i = load ptr, ptr %call2, align 8
  %8 = load ptr, ptr %vtable.i.i.i.i, align 8
  call void %8(ptr noundef nonnull align 8 dereferenceable(12) %call2) #13
  invoke void @_ZN6memory10deallocateEPv(ptr noundef nonnull %call2)
          to label %_ZN3refI6tacticED2Ev.exit unwind label %terminate.lpad.i

terminate.lpad.i:                                 ; preds = %if.then.i.i.i
  %9 = landingpad { ptr, i32 }
          catch ptr null
  %10 = extractvalue { ptr, i32 } %9, 0
  call void @__clang_call_terminate(ptr %10) #14
  unreachable

_ZN3refI6tacticED2Ev.exit:                        ; preds = %if.then.i.i6, %if.then.i.i.i
  ret void

eh.resume:                                        ; preds = %lpad4, %lpad
  %.pn = phi { ptr, i32 } [ %lpad.phi, %lpad4 ], [ %6, %lpad ]
  resume { ptr, i32 } %.pn
}